; Function Attrs: mustprogress nofree norecurse nosync nounwind willreturn memory(argmem: read) uwtable
define hidden noundef float @_ZN23AdaptiveWeightedAverage24compute_adaptive_averageEff(ptr nocapture noundef nonnull readonly align 4 dereferenceable(20) %0, float noundef %1, float noundef %2) local_unnamed_addr #0 align 2 {
  %4 = getelementptr inbounds i8, ptr %0, i64 12
  %5 = load i8, ptr %4, align 4
  %6 = trunc i8 %5 to i1
  br i1 %6, label %11, label %7

7:                                                ; preds = %3
  %8 = getelementptr inbounds i8, ptr %0, i64 4
  %9 = load i32, ptr %8, align 4
  %10 = udiv i32 100, %9
  br label %11

11:                                               ; preds = %7, %3
  %.0 = phi i32 [ 0, %3 ], [ %10, %7 ]
  %12 = getelementptr inbounds i8, ptr %0, i64 8
  %13 = load i32, ptr %12, align 4
  %14 = tail call noundef i32 @llvm.umax.i32(i32 %13, i32 %.0)
  %15 = uitofp i32 %14 to float
  %16 = fsub float 1.000000e+02, %15
  %17 = insertelement <2 x float> poison, float %15, i64 0
  %18 = insertelement <2 x float> %17, float %16, i64 1
  %19 = insertelement <2 x float> poison, float %1, i64 0
  %20 = insertelement <2 x float> %19, float %2, i64 1
  %21 = fmul <2 x float> %18, %20
  %22 = fdiv <2 x float> %21, <float 1.000000e+02, float 1.000000e+02>
  %shift = shufflevector <2 x float> %22, <2 x float> poison, <2 x i32> <i32 1, i32 poison>
  %23 = fadd <2 x float> %22, %shift
  %24 = extractelement <2 x float> %23, i64 0
  ret float %24
}